; Function Attrs: nounwind uwtable
define noalias nonnull ptr @l_Lean_throwMaxRecDepthAt___at_Lean_Elab_Command_elabCommand_go___spec__7___boxed(ptr noundef %0, ptr noundef %1, ptr noundef %2, ptr noundef %3) local_unnamed_addr #0 {
  %5 = load ptr, ptr @l_Lean_throwMaxRecDepthAt___at_Lean_Elab_Command_elabCommand_go___spec__1___closed__6, align 8, !tbaa !9
  tail call void @lean_inc_heartbeat() #6
  %6 = tail call noalias ptr @mi_malloc_small(i64 noundef 24) #6
  %7 = icmp eq ptr %6, null
  br i1 %7, label %8, label %lean_alloc_ctor.exit.i

8:                                                ; preds = %4
  tail call void @lean_internal_panic_out_of_memory() #7
  unreachable

lean_alloc_ctor.exit.i:                           ; preds = %4
  %9 = getelementptr inbounds nuw i8, ptr %6, i64 4
  store i32 1, ptr %6, align 4, !tbaa !4
  store i32 131096, ptr %9, align 4
  %10 = getelementptr inbounds nuw i8, ptr %6, i64 8
  store ptr %0, ptr %10, align 8, !tbaa !9
  %11 = getelementptr inbounds nuw i8, ptr %6, i64 16
  store ptr %5, ptr %11, align 8, !tbaa !9
  tail call void @lean_inc_heartbeat() #6
  %12 = tail call noalias ptr @mi_malloc_small(i64 noundef 24) #6
  %13 = icmp eq ptr %12, null
  br i1 %13, label %14, label %l_Lean_throwMaxRecDepthAt___at_Lean_Elab_Command_elabCommand_go___spec__7.exit

14:                                               ; preds = %lean_alloc_ctor.exit.i
  tail call void @lean_internal_panic_out_of_memory() #7
  unreachable

l_Lean_throwMaxRecDepthAt___at_Lean_Elab_Command_elabCommand_go___spec__7.exit: ; preds = %lean_alloc_ctor.exit.i
  %15 = getelementptr inbounds nuw i8, ptr %12, i64 4
  store i32 1, ptr %12, align 4, !tbaa !4
  store i32 16908312, ptr %15, align 4
  %16 = getelementptr inbounds nuw i8, ptr %12, i64 8
  store ptr %6, ptr %16, align 8, !tbaa !9
  %17 = getelementptr inbounds nuw i8, ptr %12, i64 16
  store ptr %3, ptr %17, align 8, !tbaa !9
  %18 = ptrtoint ptr %2 to i64
  %19 = and i64 %18, 1
  %.not = icmp eq i64 %19, 0
  br i1 %.not, label %20, label %lean_dec.exit7

20:                                               ; preds = %l_Lean_throwMaxRecDepthAt___at_Lean_Elab_Command_elabCommand_go___spec__7.exit
  %21 = load i32, ptr %2, align 4, !tbaa !4
  %22 = icmp sgt i32 %21, 1
  br i1 %22, label %23, label %25, !prof !13

23:                                               ; preds = %20
  %24 = add nsw i32 %21, -1
  store i32 %24, ptr %2, align 4, !tbaa !4
  br label %lean_dec.exit7

25:                                               ; preds = %20
  %.not.i = icmp eq i32 %21, 0
  br i1 %.not.i, label %lean_dec.exit7, label %26

26:                                               ; preds = %25
  tail call void @lean_dec_ref_cold(ptr noundef nonnull %2) #6
  br label %lean_dec.exit7

lean_dec.exit7:                                   ; preds = %26, %25, %23, %l_Lean_throwMaxRecDepthAt___at_Lean_Elab_Command_elabCommand_go___spec__7.exit
  %27 = ptrtoint ptr %1 to i64
  %28 = and i64 %27, 1
  %.not10 = icmp eq i64 %28, 0
  br i1 %.not10, label %29, label %lean_dec.exit

29:                                               ; preds = %lean_dec.exit7
  %30 = load i32, ptr %1, align 4, !tbaa !4
  %31 = icmp sgt i32 %30, 1
  br i1 %31, label %32, label %34, !prof !13

32:                                               ; preds = %29
  %33 = add nsw i32 %30, -1
  store i32 %33, ptr %1, align 4, !tbaa !4
  br label %lean_dec.exit

34:                                               ; preds = %29
  %.not.i8 = icmp eq i32 %30, 0
  br i1 %.not.i8, label %lean_dec.exit, label %35

35:                                               ; preds = %34
  tail call void @lean_dec_ref_cold(ptr noundef nonnull %1) #6
  br label %lean_dec.exit

lean_dec.exit:                                    ; preds = %35, %34, %32, %lean_dec.exit7
  ret ptr %12
}